target datalayout = "e-m:e-p270:32:32-p271:32:32-p272:64:64-i64:64-i128:128-f80:128-n8:16:32:64-S128"
target triple = "x86_64-pc-linux-gnu"

%struct._object = type { i64, ptr }
%struct._typeobject = type { %struct.PyVarObject, ptr, i64, i64, ptr, i64, ptr, ptr, ptr, ptr, ptr, ptr, ptr, ptr, ptr, ptr, ptr, ptr, ptr, i64, ptr, ptr, ptr, ptr, i64, ptr, ptr, ptr, ptr, ptr, ptr, ptr, ptr, ptr, i64, ptr, ptr, ptr, ptr, ptr, ptr, ptr, ptr, ptr, ptr, ptr, i32, ptr, ptr }
%struct.PyVarObject = type { %struct._object, i64 }
%"class.cv::Scalar_" = type { %"class.cv::Vec" }
%"class.cv::Vec" = type { %"class.cv::Matx" }
%"class.cv::Matx" = type { [4 x double] }
%class.ArgInfo = type <{ ptr, i8, i8, i8, i8, [4 x i8] }>
%"struct.(anonymous namespace)::SafeSeqItem" = type { ptr }

@_Py_NoneStruct = external global %struct._object, align 8
@PyFloat_Type = external global %struct._typeobject, align 8
@.str.12 = private unnamed_addr constant [48 x i8] c"Scalar value for argument '%s' is longer than 4\00", align 1
@.str.13 = private unnamed_addr constant [46 x i8] c"Scalar value for argument '%s' is not numeric\00", align 1

; Function Attrs: mustprogress nounwind uwtable
define linkonce_odr hidden void @_ZN2cv4MatxIdLi4ELi1EEC2Ev(ptr noundef nonnull align 8 dereferenceable(32) %0) unnamed_addr #5 comdat align 2 {
  %2 = alloca ptr, align 8
  %3 = alloca i32, align 4
  store ptr %0, ptr %2, align 8
  %4 = load ptr, ptr %2, align 8
  store i32 0, ptr %3, align 4
  br label %5

5:                                                ; preds = %13, %1
  %6 = load i32, ptr %3, align 4
  %7 = icmp slt i32 %6, 4
  br i1 %7, label %8, label %16

8:                                                ; preds = %5
  %9 = getelementptr inbounds %"class.cv::Matx", ptr %4, i32 0, i32 0
  %10 = load i32, ptr %3, align 4
  %11 = sext i32 %10 to i64
  %12 = getelementptr inbounds [4 x double], ptr %9, i64 0, i64 %11
  store double 0.000000e+00, ptr %12, align 8
  br label %13

13:                                               ; preds = %8
  %14 = load i32, ptr %3, align 4
  %15 = add nsw i32 %14, 1
  store i32 %15, ptr %3, align 4
  br label %5, !llvm.loop !20

16:                                               ; preds = %5
  ret void
}

; Function Attrs: mustprogress uwtable
define linkonce_odr hidden void @_ZN2cv3VecIdLi4EEC2Ev(ptr noundef nonnull align 8 dereferenceable(32) %0) unnamed_addr #4 comdat align 2 {
  %2 = alloca ptr, align 8
  store ptr %0, ptr %2, align 8
  %3 = load ptr, ptr %2, align 8
  call void @_ZN2cv4MatxIdLi4ELi1EEC2Ev(ptr noundef nonnull align 8 dereferenceable(32) %3)
  ret void
}

; Function Attrs: mustprogress nounwind uwtable
define internal noundef i32 @_ZL11_Py_IS_TYPEPK7_objectPK11_typeobject(ptr noundef %0, ptr noundef %1) #5 {
  %3 = alloca ptr, align 8
  %4 = alloca ptr, align 8
  store ptr %0, ptr %3, align 8
  store ptr %1, ptr %4, align 8
  %5 = load ptr, ptr %3, align 8
  %6 = getelementptr inbounds %struct._object, ptr %5, i32 0, i32 1
  %7 = load ptr, ptr %6, align 8
  %8 = load ptr, ptr %4, align 8
  %9 = icmp eq ptr %7, %8
  %10 = zext i1 %9 to i32
  ret i32 %10
}

; Function Attrs: mustprogress nounwind uwtable
define linkonce_odr hidden noundef nonnull align 8 dereferenceable(32) ptr @_ZN2cv7Scalar_IdEaSEOS1_(ptr noundef nonnull align 8 dereferenceable(32) %0, ptr noundef nonnull align 8 dereferenceable(32) %1) #5 comdat align 2 {
  %3 = alloca ptr, align 8
  %4 = alloca ptr, align 8
  store ptr %0, ptr %3, align 8
  store ptr %1, ptr %4, align 8
  %5 = load ptr, ptr %3, align 8
  %6 = load ptr, ptr %4, align 8
  %7 = getelementptr inbounds %"class.cv::Matx", ptr %6, i32 0, i32 0
  %8 = getelementptr inbounds [4 x double], ptr %7, i64 0, i64 0
  %9 = load double, ptr %8, align 8
  %10 = getelementptr inbounds %"class.cv::Matx", ptr %5, i32 0, i32 0
  %11 = getelementptr inbounds [4 x double], ptr %10, i64 0, i64 0
  store double %9, ptr %11, align 8
  %12 = load ptr, ptr %4, align 8
  %13 = getelementptr inbounds %"class.cv::Matx", ptr %12, i32 0, i32 0
  %14 = getelementptr inbounds [4 x double], ptr %13, i64 0, i64 1
  %15 = load double, ptr %14, align 8
  %16 = getelementptr inbounds %"class.cv::Matx", ptr %5, i32 0, i32 0
  %17 = getelementptr inbounds [4 x double], ptr %16, i64 0, i64 1
  store double %15, ptr %17, align 8
  %18 = load ptr, ptr %4, align 8
  %19 = getelementptr inbounds %"class.cv::Matx", ptr %18, i32 0, i32 0
  %20 = getelementptr inbounds [4 x double], ptr %19, i64 0, i64 2
  %21 = load double, ptr %20, align 8
  %22 = getelementptr inbounds %"class.cv::Matx", ptr %5, i32 0, i32 0
  %23 = getelementptr inbounds [4 x double], ptr %22, i64 0, i64 2
  store double %21, ptr %23, align 8
  %24 = load ptr, ptr %4, align 8
  %25 = getelementptr inbounds %"class.cv::Matx", ptr %24, i32 0, i32 0
  %26 = getelementptr inbounds [4 x double], ptr %25, i64 0, i64 3
  %27 = load double, ptr %26, align 8
  %28 = getelementptr inbounds %"class.cv::Matx", ptr %5, i32 0, i32 0
  %29 = getelementptr inbounds [4 x double], ptr %28, i64 0, i64 3
  store double %27, ptr %29, align 8
  ret ptr %5
}

; Function Attrs: mustprogress uwtable
define linkonce_odr hidden void @_ZN2cv7Scalar_IdEC2Ed(ptr noundef nonnull align 8 dereferenceable(32) %0, double noundef %1) unnamed_addr #4 comdat align 2 {
  %3 = alloca ptr, align 8
  %4 = alloca double, align 8
  store ptr %0, ptr %3, align 8
  store double %1, ptr %4, align 8
  %5 = load ptr, ptr %3, align 8
  call void @_ZN2cv3VecIdLi4EEC2Ev(ptr noundef nonnull align 8 dereferenceable(32) %5)
  %6 = load double, ptr %4, align 8
  %7 = getelementptr inbounds %"class.cv::Matx", ptr %5, i32 0, i32 0
  %8 = getelementptr inbounds [4 x double], ptr %7, i64 0, i64 0
  store double %6, ptr %8, align 8
  %9 = getelementptr inbounds %"class.cv::Matx", ptr %5, i32 0, i32 0
  %10 = getelementptr inbounds [4 x double], ptr %9, i64 0, i64 3
  store double 0.000000e+00, ptr %10, align 8
  %11 = getelementptr inbounds %"class.cv::Matx", ptr %5, i32 0, i32 0
  %12 = getelementptr inbounds [4 x double], ptr %11, i64 0, i64 2
  store double 0.000000e+00, ptr %12, align 8
  %13 = getelementptr inbounds %"class.cv::Matx", ptr %5, i32 0, i32 0
  %14 = getelementptr inbounds [4 x double], ptr %13, i64 0, i64 1
  store double 0.000000e+00, ptr %14, align 8
  ret void
}

; Function Attrs: mustprogress nounwind uwtable
define linkonce_odr hidden noundef nonnull align 8 dereferenceable(8) ptr @_ZN2cv3VecIdLi4EEixEi(ptr noundef nonnull align 8 dereferenceable(32) %0, i32 noundef %1) #5 comdat align 2 {
  %3 = alloca ptr, align 8
  %4 = alloca i32, align 4
  store ptr %0, ptr %3, align 8
  store i32 %1, ptr %4, align 4
  %5 = load ptr, ptr %3, align 8
  %6 = getelementptr inbounds %"class.cv::Matx", ptr %5, i32 0, i32 0
  %7 = load i32, ptr %4, align 4
  %8 = sext i32 %7 to i64
  %9 = getelementptr inbounds [4 x double], ptr %6, i64 0, i64 %8
  ret ptr %9
}

; Function Attrs: mustprogress nounwind uwtable
define internal noundef i32 @_ZL17PyType_HasFeatureP11_typeobjectm(ptr noundef %0, i64 noundef %1) #5 {
  %3 = alloca ptr, align 8
  %4 = alloca i64, align 8
  %5 = alloca i64, align 8
  store ptr %0, ptr %3, align 8
  store i64 %1, ptr %4, align 8
  %6 = load ptr, ptr %3, align 8
  %7 = getelementptr inbounds %struct._typeobject, ptr %6, i32 0, i32 19
  %8 = load i64, ptr %7, align 8
  store i64 %8, ptr %5, align 8
  %9 = load i64, ptr %5, align 8
  %10 = load i64, ptr %4, align 8
  %11 = and i64 %9, %10
  %12 = icmp ne i64 %11, 0
  %13 = zext i1 %12 to i32
  ret i32 %13
}

; Function Attrs: mustprogress uwtable
define internal noundef i32 @_ZL19_PyObject_TypeCheckP7_objectP11_typeobject(ptr noundef %0, ptr noundef %1) #4 {
  %3 = alloca ptr, align 8
  %4 = alloca ptr, align 8
  store ptr %0, ptr %3, align 8
  store ptr %1, ptr %4, align 8
  %5 = load ptr, ptr %3, align 8
  %6 = load ptr, ptr %4, align 8
  %7 = call noundef i32 @_ZL11_Py_IS_TYPEPK7_objectPK11_typeobject(ptr noundef %5, ptr noundef %6)
  %8 = icmp ne i32 %7, 0
  br i1 %8, label %16, label %9

9:                                                ; preds = %2
  %10 = load ptr, ptr %3, align 8
  %11 = getelementptr inbounds %struct._object, ptr %10, i32 0, i32 1
  %12 = load ptr, ptr %11, align 8
  %13 = load ptr, ptr %4, align 8
  %14 = call i32 @PyType_IsSubtype(ptr noundef %12, ptr noundef %13)
  %15 = icmp ne i32 %14, 0
  br label %16

16:                                               ; preds = %9, %2
  %17 = phi i1 [ true, %2 ], [ %15, %9 ]
  %18 = zext i1 %17 to i32
  ret i32 %18
}

; Function Attrs: mustprogress uwtable
define internal void @_ZN12_GLOBAL__N_111SafeSeqItemC2EP7_objectm(ptr noundef nonnull align 8 dereferenceable(8) %0, ptr noundef %1, i64 noundef %2) unnamed_addr #4 align 2 {
  %4 = alloca ptr, align 8
  %5 = alloca ptr, align 8
  %6 = alloca i64, align 8
  store ptr %0, ptr %4, align 8
  store ptr %1, ptr %5, align 8
  store i64 %2, ptr %6, align 8
  %7 = load ptr, ptr %4, align 8
  %8 = load ptr, ptr %5, align 8
  %9 = load i64, ptr %6, align 8
  %10 = call ptr @PySequence_GetItem(ptr noundef %8, i64 noundef %9)
  %11 = getelementptr inbounds %"struct.(anonymous namespace)::SafeSeqItem", ptr %7, i32 0, i32 0
  store ptr %10, ptr %11, align 8
  ret void
}

; Function Attrs: mustprogress uwtable
define hidden noundef zeroext i1 @_Z11pyopencv_toIN2cv7Scalar_IdEEEbP7_objectRT_RK7ArgInfo(ptr noundef %0, ptr noundef nonnull align 8 dereferenceable(32) %1, ptr noundef nonnull align 8 dereferenceable(12) %2) #4 personality ptr @__gxx_personality_v0 {
  %4 = alloca i1, align 1
  %5 = alloca ptr, align 8
  %6 = alloca ptr, align 8
  %7 = alloca ptr, align 8
  %8 = alloca i64, align 8
  %9 = alloca %"struct.(anonymous namespace)::SafeSeqItem", align 8
  %10 = alloca ptr, align 8
  %11 = alloca ptr, align 8
  %12 = alloca i32, align 4
  %13 = alloca i32, align 4
  %14 = alloca %"class.cv::Scalar_", align 8
  store ptr %0, ptr %5, align 8
  store ptr %1, ptr %6, align 8
  store ptr %2, ptr %7, align 8
  %15 = load ptr, ptr %5, align 8
  %16 = icmp ne ptr %15, null
  br i1 %16, label %17, label %20

17:                                               ; preds = %3
  %18 = load ptr, ptr %5, align 8
  %19 = icmp eq ptr %18, @_Py_NoneStruct
  br i1 %19, label %20, label %21

20:                                               ; preds = %17, %3
  store i1 true, ptr %4, align 1
  br label %105

21:                                               ; preds = %17
  %22 = load ptr, ptr %5, align 8
  %23 = call i32 @PySequence_Check(ptr noundef %22)
  %24 = icmp ne i32 %23, 0
  br i1 %24, label %25, label %83

25:                                               ; preds = %21
  %26 = load ptr, ptr %5, align 8
  %27 = call i64 @PySequence_Size(ptr noundef %26)
  %28 = icmp slt i64 4, %27
  br i1 %28, label %29, label %34

29:                                               ; preds = %25
  %30 = load ptr, ptr %7, align 8
  %31 = getelementptr inbounds %class.ArgInfo, ptr %30, i32 0, i32 0
  %32 = load ptr, ptr %31, align 8
  %33 = call noundef i32 (ptr, ...) @_Z7failmsgPKcz(ptr noundef @.str.12, ptr noundef %32)
  store i1 false, ptr %4, align 1
  br label %105

34:                                               ; preds = %25
  store i64 0, ptr %8, align 8
  br label %35

35:                                               ; preds = %79, %34
  %36 = load i64, ptr %8, align 8
  %37 = load ptr, ptr %5, align 8
  %38 = call i64 @PySequence_Size(ptr noundef %37)
  %39 = icmp slt i64 %36, %38
  br i1 %39, label %40, label %82

40:                                               ; preds = %35
  %41 = load ptr, ptr %5, align 8
  %42 = load i64, ptr %8, align 8
  call void @_ZN12_GLOBAL__N_111SafeSeqItemC2EP7_objectm(ptr noundef nonnull align 8 dereferenceable(8) %9, ptr noundef %41, i64 noundef %42)
  %43 = getelementptr inbounds %"struct.(anonymous namespace)::SafeSeqItem", ptr %9, i32 0, i32 0
  %44 = load ptr, ptr %43, align 8
  store ptr %44, ptr %10, align 8
  %45 = load ptr, ptr %10, align 8
  %46 = invoke noundef i32 @_ZL19_PyObject_TypeCheckP7_objectP11_typeobject(ptr noundef %45, ptr noundef @PyFloat_Type)
          to label %47 unwind label %65

47:                                               ; preds = %40
  %48 = icmp ne i32 %46, 0
  br i1 %48, label %56, label %49

49:                                               ; preds = %47
  %50 = load ptr, ptr %10, align 8
  %51 = getelementptr inbounds %struct._object, ptr %50, i32 0, i32 1
  %52 = load ptr, ptr %51, align 8
  %53 = invoke noundef i32 @_ZL17PyType_HasFeatureP11_typeobjectm(ptr noundef %52, i64 noundef 16777216)
          to label %54 unwind label %65

54:                                               ; preds = %49
  %55 = icmp ne i32 %53, 0
  br i1 %55, label %56, label %69

56:                                               ; preds = %54, %47
  %57 = load ptr, ptr %10, align 8
  %58 = invoke double @PyFloat_AsDouble(ptr noundef %57)
          to label %59 unwind label %65

59:                                               ; preds = %56
  %60 = load ptr, ptr %6, align 8
  %61 = load i64, ptr %8, align 8
  %62 = trunc i64 %61 to i32
  %63 = invoke noundef nonnull align 8 dereferenceable(8) ptr @_ZN2cv3VecIdLi4EEixEi(ptr noundef nonnull align 8 dereferenceable(32) %60, i32 noundef %62)
          to label %64 unwind label %65

64:                                               ; preds = %59
  store double %58, ptr %63, align 8
  br label %75

65:                                               ; preds = %69, %59, %56, %49, %40
  %66 = landingpad { ptr, i32 }
          cleanup
  %67 = extractvalue { ptr, i32 } %66, 0
  store ptr %67, ptr %11, align 8
  %68 = extractvalue { ptr, i32 } %66, 1
  store i32 %68, ptr %12, align 4
  call void @_ZN12_GLOBAL__N_111SafeSeqItemD2Ev(ptr noundef nonnull align 8 dereferenceable(8) %9) #3
  br label %107

69:                                               ; preds = %54
  %70 = load ptr, ptr %7, align 8
  %71 = getelementptr inbounds %class.ArgInfo, ptr %70, i32 0, i32 0
  %72 = load ptr, ptr %71, align 8
  %73 = invoke noundef i32 (ptr, ...) @_Z7failmsgPKcz(ptr noundef @.str.13, ptr noundef %72)
          to label %74 unwind label %65

74:                                               ; preds = %69
  store i1 false, ptr %4, align 1
  store i32 1, ptr %13, align 4
  br label %76

75:                                               ; preds = %64
  store i32 0, ptr %13, align 4
  br label %76

76:                                               ; preds = %75, %74
  call void @_ZN12_GLOBAL__N_111SafeSeqItemD2Ev(ptr noundef nonnull align 8 dereferenceable(8) %9) #3
  %77 = load i32, ptr %13, align 4
  switch i32 %77, label %112 [
    i32 0, label %78
    i32 1, label %105
  ]

78:                                               ; preds = %76
  br label %79

79:                                               ; preds = %78
  %80 = load i64, ptr %8, align 8
  %81 = add nsw i64 %80, 1
  store i64 %81, ptr %8, align 8
  br label %35, !llvm.loop !10

82:                                               ; preds = %35
  br label %104

83:                                               ; preds = %21
  %84 = load ptr, ptr %5, align 8
  %85 = call noundef i32 @_ZL19_PyObject_TypeCheckP7_objectP11_typeobject(ptr noundef %84, ptr noundef @PyFloat_Type)
  %86 = icmp ne i32 %85, 0
  br i1 %86, label %93, label %87

87:                                               ; preds = %83
  %88 = load ptr, ptr %5, align 8
  %89 = getelementptr inbounds %struct._object, ptr %88, i32 0, i32 1
  %90 = load ptr, ptr %89, align 8
  %91 = call noundef i32 @_ZL17PyType_HasFeatureP11_typeobjectm(ptr noundef %90, i64 noundef 16777216)
  %92 = icmp ne i32 %91, 0
  br i1 %92, label %93, label %98

93:                                               ; preds = %87, %83
  %94 = load ptr, ptr %5, align 8
  %95 = call double @PyFloat_AsDouble(ptr noundef %94)
  call void @_ZN2cv7Scalar_IdEC2Ed(ptr noundef nonnull align 8 dereferenceable(32) %14, double noundef %95)
  %96 = load ptr, ptr %6, align 8
  %97 = call noundef nonnull align 8 dereferenceable(32) ptr @_ZN2cv7Scalar_IdEaSEOS1_(ptr noundef nonnull align 8 dereferenceable(32) %96, ptr noundef nonnull align 8 dereferenceable(32) %14) #3
  br label %103

98:                                               ; preds = %87
  %99 = load ptr, ptr %7, align 8
  %100 = getelementptr inbounds %class.ArgInfo, ptr %99, i32 0, i32 0
  %101 = load ptr, ptr %100, align 8
  %102 = call noundef i32 (ptr, ...) @_Z7failmsgPKcz(ptr noundef @.str.13, ptr noundef %101)
  store i1 false, ptr %4, align 1
  br label %105

103:                                              ; preds = %93
  br label %104

104:                                              ; preds = %103, %82
  store i1 true, ptr %4, align 1
  br label %105

105:                                              ; preds = %104, %98, %76, %29, %20
  %106 = load i1, ptr %4, align 1
  ret i1 %106

107:                                              ; preds = %65
  %108 = load ptr, ptr %11, align 8
  %109 = load i32, ptr %12, align 4
  %110 = insertvalue { ptr, i32 } poison, ptr %108, 0
  %111 = insertvalue { ptr, i32 } %110, i32 %109, 1
  resume { ptr, i32 } %111

112:                                              ; preds = %76
  unreachable
}