; Function Attrs: mustprogress uwtable
define hidden noundef zeroext i1 @_Z11pyopencv_toIN2cv7Scalar_IdEEEbP7_objectRT_RK7ArgInfo(ptr noundef %0, ptr nocapture noundef nonnull writeonly align 8 dereferenceable(32) %1, ptr nocapture noundef nonnull readonly align 8 dereferenceable(12) %2) local_unnamed_addr #3 personality ptr @__gxx_personality_v0 {
  %4 = icmp eq ptr %0, null
  %5 = icmp eq ptr %0, @_Py_NoneStruct
  %or.cond = or i1 %4, %5
  br i1 %or.cond, label %.loopexit, label %6

6:                                                ; preds = %3
  %7 = tail call i32 @PySequence_Check(ptr noundef nonnull %0)
  %.not = icmp eq i32 %7, 0
  br i1 %.not, label %44, label %8

8:                                                ; preds = %6
  %9 = tail call i64 @PySequence_Size(ptr noundef nonnull %0)
  %10 = icmp sgt i64 %9, 4
  br i1 %10, label %13, label %.preheader

.preheader:                                       ; preds = %8
  %11 = tail call i64 @PySequence_Size(ptr noundef nonnull %0)
  %12 = icmp sgt i64 %11, 0
  br i1 %12, label %.lr.ph, label %.loopexit

13:                                               ; preds = %8
  %14 = load ptr, ptr %2, align 8
  %15 = tail call noundef i32 (ptr, ...) @_Z7failmsgPKcz(ptr noundef nonnull @.str.12, ptr noundef %14)
  br label %.loopexit

16:                                               ; preds = %_ZN12_GLOBAL__N_111SafeSeqItemD2Ev.exit
  %17 = add nuw nsw i64 %.02645, 1
  %18 = tail call i64 @PySequence_Size(ptr noundef %0)
  %19 = icmp slt i64 %17, %18
  br i1 %19, label %.lr.ph, label %.loopexit, !llvm.loop !10

.lr.ph:                                           ; preds = %.preheader, %16
  %.02645 = phi i64 [ %17, %16 ], [ 0, %.preheader ]
  %20 = tail call ptr @PySequence_GetItem(ptr noundef %0, i64 noundef %.02645)
  %21 = getelementptr i8, ptr %20, i64 8
  %.val34 = load ptr, ptr %21, align 8
  %.not.i = icmp eq ptr %.val34, @PyFloat_Type
  br i1 %.not.i, label %_ZL19_PyObject_TypeCheckP7_objectP11_typeobject.exit.thread, label %22

22:                                               ; preds = %.lr.ph
  %23 = invoke i32 @PyType_IsSubtype(ptr noundef %.val34, ptr noundef nonnull @PyFloat_Type)
          to label %_ZL19_PyObject_TypeCheckP7_objectP11_typeobject.exit unwind label %32

_ZL19_PyObject_TypeCheckP7_objectP11_typeobject.exit: ; preds = %22
  %.not42 = icmp eq i32 %23, 0
  br i1 %.not42, label %24, label %_ZL19_PyObject_TypeCheckP7_objectP11_typeobject.exit.thread

24:                                               ; preds = %_ZL19_PyObject_TypeCheckP7_objectP11_typeobject.exit
  %25 = load ptr, ptr %21, align 8
  %26 = getelementptr i8, ptr %25, i64 168
  %.val = load i64, ptr %26, align 8
  %27 = and i64 %.val, 16777216
  %.not31 = icmp eq i64 %27, 0
  br i1 %.not31, label %34, label %_ZL19_PyObject_TypeCheckP7_objectP11_typeobject.exit.thread

_ZL19_PyObject_TypeCheckP7_objectP11_typeobject.exit.thread: ; preds = %.lr.ph, %24, %_ZL19_PyObject_TypeCheckP7_objectP11_typeobject.exit
  %28 = invoke double @PyFloat_AsDouble(ptr noundef nonnull %20)
          to label %29 unwind label %32

29:                                               ; preds = %_ZL19_PyObject_TypeCheckP7_objectP11_typeobject.exit.thread
  %sext = shl i64 %.02645, 32
  %30 = ashr exact i64 %sext, 32
  %31 = getelementptr inbounds [4 x double], ptr %1, i64 0, i64 %30
  store double %28, ptr %31, align 8
  br label %37

32:                                               ; preds = %22, %34, %_ZL19_PyObject_TypeCheckP7_objectP11_typeobject.exit.thread
  %33 = landingpad { ptr, i32 }
          cleanup
  tail call fastcc void @_ZN12_GLOBAL__N_111SafeSeqItemD2Ev(ptr nonnull %20) #12
  resume { ptr, i32 } %33

34:                                               ; preds = %24
  %35 = load ptr, ptr %2, align 8
  %36 = invoke noundef i32 (ptr, ...) @_Z7failmsgPKcz(ptr noundef nonnull @.str.13, ptr noundef %35)
          to label %37 unwind label %32

37:                                               ; preds = %29, %34
  %switch = phi i1 [ true, %29 ], [ false, %34 ]
  %38 = load i64, ptr %20, align 8
  %39 = add nsw i64 %38, -1
  store i64 %39, ptr %20, align 8
  %.not.i.i.i = icmp eq i64 %39, 0
  br i1 %.not.i.i.i, label %40, label %_ZN12_GLOBAL__N_111SafeSeqItemD2Ev.exit

40:                                               ; preds = %37
  invoke void @_Py_Dealloc(ptr noundef nonnull %20)
          to label %_ZN12_GLOBAL__N_111SafeSeqItemD2Ev.exit unwind label %41

41:                                               ; preds = %40
  %42 = landingpad { ptr, i32 }
          catch ptr null
  %43 = extractvalue { ptr, i32 } %42, 0
  tail call void @__clang_call_terminate(ptr %43) #13
  unreachable

_ZN12_GLOBAL__N_111SafeSeqItemD2Ev.exit:          ; preds = %37, %40
  br i1 %switch, label %16, label %.loopexit

44:                                               ; preds = %6
  %45 = getelementptr i8, ptr %0, i64 8
  %.val33 = load ptr, ptr %45, align 8
  %.not.i37 = icmp eq ptr %.val33, @PyFloat_Type
  br i1 %.not.i37, label %_ZL19_PyObject_TypeCheckP7_objectP11_typeobject.exit38.thread, label %_ZL19_PyObject_TypeCheckP7_objectP11_typeobject.exit38

_ZL19_PyObject_TypeCheckP7_objectP11_typeobject.exit38: ; preds = %44
  %46 = tail call i32 @PyType_IsSubtype(ptr noundef %.val33, ptr noundef nonnull @PyFloat_Type)
  %.not43 = icmp eq i32 %46, 0
  br i1 %.not43, label %47, label %_ZL19_PyObject_TypeCheckP7_objectP11_typeobject.exit38.thread

47:                                               ; preds = %_ZL19_PyObject_TypeCheckP7_objectP11_typeobject.exit38
  %48 = load ptr, ptr %45, align 8
  %49 = getelementptr i8, ptr %48, i64 168
  %.val32 = load i64, ptr %49, align 8
  %50 = and i64 %.val32, 16777216
  %.not29 = icmp eq i64 %50, 0
  br i1 %.not29, label %53, label %_ZL19_PyObject_TypeCheckP7_objectP11_typeobject.exit38.thread

_ZL19_PyObject_TypeCheckP7_objectP11_typeobject.exit38.thread: ; preds = %44, %47, %_ZL19_PyObject_TypeCheckP7_objectP11_typeobject.exit38
  %51 = tail call double @PyFloat_AsDouble(ptr noundef nonnull %0)
  store double %51, ptr %1, align 8
  %52 = getelementptr inbounds i8, ptr %1, i64 8
  tail call void @llvm.memset.p0.i64(ptr noundef nonnull align 8 dereferenceable(24) %52, i8 0, i64 24, i1 false)
  br label %.loopexit

53:                                               ; preds = %47
  %54 = load ptr, ptr %2, align 8
  %55 = tail call noundef i32 (ptr, ...) @_Z7failmsgPKcz(ptr noundef nonnull @.str.13, ptr noundef %54)
  br label %.loopexit

.loopexit:                                        ; preds = %_ZN12_GLOBAL__N_111SafeSeqItemD2Ev.exit, %16, %.preheader, %_ZL19_PyObject_TypeCheckP7_objectP11_typeobject.exit38.thread, %3, %53, %13
  %.2 = phi i1 [ false, %13 ], [ false, %53 ], [ true, %3 ], [ true, %_ZL19_PyObject_TypeCheckP7_objectP11_typeobject.exit38.thread ], [ true, %.preheader ], [ %switch, %16 ], [ %switch, %_ZN12_GLOBAL__N_111SafeSeqItemD2Ev.exit ]
  ret i1 %.2
}